; Function Attrs: mustprogress nounwind uwtable
define hidden void @_ZN11OptoRuntime23deoptimize_caller_frameEP10JavaThreadb(ptr noundef %0, i1 noundef zeroext %1) local_unnamed_addr #0 align 2 {
  br i1 %1, label %3, label %4

3:                                                ; preds = %2
  tail call void @_ZN11OptoRuntime23deoptimize_caller_frameEP10JavaThread(ptr noundef %0)
  br label %4

4:                                                ; preds = %3, %2
  ret void
}